target datalayout = "e-m:e-p270:32:32-p271:32:32-p272:64:64-i64:64-i128:128-f80:128-n8:16:32:64-S128"
target triple = "x86_64-unknown-linux-gnu"

%"struct.Imf_3_2::DeepScanLineInputFile::Data" = type <{ %"class.std::mutex", %"class.Imf_3_2::Header", i32, [4 x i8], %"class.Imf_3_2::DeepFrameBuffer", i32, i32, i32, i32, i32, [4 x i8], %"class.std::vector", i8, [3 x i8], i32, %"class.std::vector", %"class.std::vector", %"class.std::vector.11", %"class.std::vector.16", i32, i32, i32, i8, [3 x i8], ptr, i8, i8, [6 x i8], %"class.Imf_3_2::Array2D", %"class.Imf_3_2::Array", %"class.Imf_3_2::Array.21", ptr, i32, i32, i8, [7 x i8], %"class.Imf_3_2::Array.22", ptr, i32, i32, ptr, i8, [7 x i8] }>
%"class.std::mutex" = type { %"class.std::__mutex_base" }
%"class.std::__mutex_base" = type { %union.pthread_mutex_t }
%union.pthread_mutex_t = type { %struct.__pthread_mutex_s }
%struct.__pthread_mutex_s = type { i32, i32, i32, i32, i32, i16, i16, %struct.__pthread_internal_list }
%struct.__pthread_internal_list = type { ptr, ptr }
%"class.Imf_3_2::Header" = type <{ %"class.std::map", i8, [7 x i8] }>
%"class.std::map" = type { %"class.std::_Rb_tree" }
%"class.std::_Rb_tree" = type { %"struct.std::_Rb_tree<Imf_3_2::Name, std::pair<const Imf_3_2::Name, Imf_3_2::Attribute *>, std::_Select1st<std::pair<const Imf_3_2::Name, Imf_3_2::Attribute *>>, std::less<Imf_3_2::Name>>::_Rb_tree_impl" }
%"struct.std::_Rb_tree<Imf_3_2::Name, std::pair<const Imf_3_2::Name, Imf_3_2::Attribute *>, std::_Select1st<std::pair<const Imf_3_2::Name, Imf_3_2::Attribute *>>, std::less<Imf_3_2::Name>>::_Rb_tree_impl" = type { %"struct.std::_Rb_tree_key_compare", %"struct.std::_Rb_tree_header" }
%"struct.std::_Rb_tree_key_compare" = type { %"struct.std::less" }
%"struct.std::less" = type { i8 }
%"struct.std::_Rb_tree_header" = type { %"struct.std::_Rb_tree_node_base", i64 }
%"struct.std::_Rb_tree_node_base" = type { i32, ptr, ptr, ptr }
%"class.Imf_3_2::DeepFrameBuffer" = type { %"class.std::map.3", %"struct.Imf_3_2::Slice" }
%"class.std::map.3" = type { %"class.std::_Rb_tree.4" }
%"class.std::_Rb_tree.4" = type { %"struct.std::_Rb_tree<Imf_3_2::Name, std::pair<const Imf_3_2::Name, Imf_3_2::DeepSlice>, std::_Select1st<std::pair<const Imf_3_2::Name, Imf_3_2::DeepSlice>>, std::less<Imf_3_2::Name>>::_Rb_tree_impl" }
%"struct.std::_Rb_tree<Imf_3_2::Name, std::pair<const Imf_3_2::Name, Imf_3_2::DeepSlice>, std::_Select1st<std::pair<const Imf_3_2::Name, Imf_3_2::DeepSlice>>, std::less<Imf_3_2::Name>>::_Rb_tree_impl" = type { %"struct.std::_Rb_tree_key_compare", %"struct.std::_Rb_tree_header" }
%"struct.Imf_3_2::Slice" = type <{ i32, [4 x i8], ptr, i64, i64, i32, i32, double, i8, i8, [6 x i8] }>
%"class.std::vector" = type { %"struct.std::_Vector_base" }
%"struct.std::_Vector_base" = type { %"struct.std::_Vector_base<unsigned long, std::allocator<unsigned long>>::_Vector_impl" }
%"struct.std::_Vector_base<unsigned long, std::allocator<unsigned long>>::_Vector_impl" = type { %"struct.std::_Vector_base<unsigned long, std::allocator<unsigned long>>::_Vector_impl_data" }
%"struct.std::_Vector_base<unsigned long, std::allocator<unsigned long>>::_Vector_impl_data" = type { ptr, ptr, ptr }
%"class.std::vector.11" = type { %"struct.std::_Vector_base.12" }
%"struct.std::_Vector_base.12" = type { %"struct.std::_Vector_base<Imf_3_2::(anonymous namespace)::InSliceInfo *, std::allocator<Imf_3_2::(anonymous namespace)::InSliceInfo *>>::_Vector_impl" }
%"struct.std::_Vector_base<Imf_3_2::(anonymous namespace)::InSliceInfo *, std::allocator<Imf_3_2::(anonymous namespace)::InSliceInfo *>>::_Vector_impl" = type { %"struct.std::_Vector_base<Imf_3_2::(anonymous namespace)::InSliceInfo *, std::allocator<Imf_3_2::(anonymous namespace)::InSliceInfo *>>::_Vector_impl_data" }
%"struct.std::_Vector_base<Imf_3_2::(anonymous namespace)::InSliceInfo *, std::allocator<Imf_3_2::(anonymous namespace)::InSliceInfo *>>::_Vector_impl_data" = type { ptr, ptr, ptr }
%"class.std::vector.16" = type { %"struct.std::_Vector_base.17" }
%"struct.std::_Vector_base.17" = type { %"struct.std::_Vector_base<Imf_3_2::(anonymous namespace)::LineBuffer *, std::allocator<Imf_3_2::(anonymous namespace)::LineBuffer *>>::_Vector_impl" }
%"struct.std::_Vector_base<Imf_3_2::(anonymous namespace)::LineBuffer *, std::allocator<Imf_3_2::(anonymous namespace)::LineBuffer *>>::_Vector_impl" = type { %"struct.std::_Vector_base<Imf_3_2::(anonymous namespace)::LineBuffer *, std::allocator<Imf_3_2::(anonymous namespace)::LineBuffer *>>::_Vector_impl_data" }
%"struct.std::_Vector_base<Imf_3_2::(anonymous namespace)::LineBuffer *, std::allocator<Imf_3_2::(anonymous namespace)::LineBuffer *>>::_Vector_impl_data" = type { ptr, ptr, ptr }
%"class.Imf_3_2::Array2D" = type { i64, i64, ptr }
%"class.Imf_3_2::Array" = type { i64, ptr }
%"class.Imf_3_2::Array.21" = type { i64, ptr }
%"class.Imf_3_2::Array.22" = type { i64, ptr }
%"class.Imf_3_2::DeepScanLineInputFile" = type { %"class.Imf_3_2::GenericInputFile", ptr }
%"class.Imf_3_2::GenericInputFile" = type { ptr }
%"struct.Imf_3_2::InputPartData" = type <{ %"class.Imf_3_2::Header", i32, i32, i32, [4 x i8], ptr, %"class.std::vector", i8, [7 x i8] }>
%"struct.Imf_3_2::InputStreamMutex" = type { %"class.std::mutex", ptr, i64 }

; Function Attrs: mustprogress uwtable
define void @_ZN7Imf_3_221DeepScanLineInputFile19multiPartInitializeEPNS_13InputPartDataE(ptr noundef nonnull align 8 dereferenceable(16) %this, ptr noundef %part) #4 align 2 {
entry:
  %this.addr = alloca ptr, align 8
  %part.addr = alloca ptr, align 8
  store ptr %this, ptr %this.addr, align 8
  store ptr %part, ptr %part.addr, align 8
  %this1 = load ptr, ptr %this.addr, align 8
  %0 = load ptr, ptr %part.addr, align 8
  %mutex = getelementptr inbounds %"struct.Imf_3_2::InputPartData", ptr %0, i32 0, i32 5
  %1 = load ptr, ptr %mutex, align 8
  %_data = getelementptr inbounds %"class.Imf_3_2::DeepScanLineInputFile", ptr %this1, i32 0, i32 1
  %2 = load ptr, ptr %_data, align 8
  %_streamData = getelementptr inbounds %"struct.Imf_3_2::DeepScanLineInputFile::Data", ptr %2, i32 0, i32 40
  store ptr %1, ptr %_streamData, align 8
  %_data2 = getelementptr inbounds %"class.Imf_3_2::DeepScanLineInputFile", ptr %this1, i32 0, i32 1
  %3 = load ptr, ptr %_data2, align 8
  %_streamData3 = getelementptr inbounds %"struct.Imf_3_2::DeepScanLineInputFile::Data", ptr %3, i32 0, i32 40
  %4 = load ptr, ptr %_streamData3, align 8
  %is = getelementptr inbounds %"struct.Imf_3_2::InputStreamMutex", ptr %4, i32 0, i32 1
  %5 = load ptr, ptr %is, align 8
  %vtable = load ptr, ptr %5, align 8
  %vfn = getelementptr inbounds ptr, ptr %vtable, i64 2
  %6 = load ptr, ptr %vfn, align 8
  %call = call noundef zeroext i1 %6(ptr noundef nonnull align 8 dereferenceable(40) %5)
  %_data4 = getelementptr inbounds %"class.Imf_3_2::DeepScanLineInputFile", ptr %this1, i32 0, i32 1
  %7 = load ptr, ptr %_data4, align 8
  %memoryMapped = getelementptr inbounds %"struct.Imf_3_2::DeepScanLineInputFile::Data", ptr %7, i32 0, i32 25
  %frombool = zext i1 %call to i8
  store i8 %frombool, ptr %memoryMapped, align 8
  %8 = load ptr, ptr %part.addr, align 8
  %version = getelementptr inbounds %"struct.Imf_3_2::InputPartData", ptr %8, i32 0, i32 3
  %9 = load i32, ptr %version, align 8
  %_data5 = getelementptr inbounds %"class.Imf_3_2::DeepScanLineInputFile", ptr %this1, i32 0, i32 1
  %10 = load ptr, ptr %_data5, align 8
  %version6 = getelementptr inbounds %"struct.Imf_3_2::DeepScanLineInputFile::Data", ptr %10, i32 0, i32 2
  store i32 %9, ptr %version6, align 8
  %11 = load ptr, ptr %part.addr, align 8
  %header = getelementptr inbounds %"struct.Imf_3_2::InputPartData", ptr %11, i32 0, i32 0
  call void @_ZN7Imf_3_221DeepScanLineInputFile10initializeERKNS_6HeaderE(ptr noundef nonnull align 8 dereferenceable(16) %this1, ptr noundef nonnull align 8 dereferenceable(49) %header)
  %12 = load ptr, ptr %part.addr, align 8
  %chunkOffsets = getelementptr inbounds %"struct.Imf_3_2::InputPartData", ptr %12, i32 0, i32 6
  %_data7 = getelementptr inbounds %"class.Imf_3_2::DeepScanLineInputFile", ptr %this1, i32 0, i32 1
  %13 = load ptr, ptr %_data7, align 8
  %lineOffsets = getelementptr inbounds %"struct.Imf_3_2::DeepScanLineInputFile::Data", ptr %13, i32 0, i32 11
  %call8 = call noundef nonnull align 8 dereferenceable(24) ptr @_ZNSt6vectorImSaImEEaSERKS1_(ptr noundef nonnull align 8 dereferenceable(24) %lineOffsets, ptr noundef nonnull align 8 dereferenceable(24) %chunkOffsets)
  %14 = load ptr, ptr %part.addr, align 8
  %partNumber = getelementptr inbounds %"struct.Imf_3_2::InputPartData", ptr %14, i32 0, i32 2
  %15 = load i32, ptr %partNumber, align 4
  %_data9 = getelementptr inbounds %"class.Imf_3_2::DeepScanLineInputFile", ptr %this1, i32 0, i32 1
  %16 = load ptr, ptr %_data9, align 8
  %partNumber10 = getelementptr inbounds %"struct.Imf_3_2::DeepScanLineInputFile::Data", ptr %16, i32 0, i32 20
  store i32 %15, ptr %partNumber10, align 4
  ret void
}

; Function Attrs: mustprogress uwtable
define void @_ZN7Imf_3_221DeepScanLineInputFile23compatibilityInitializeERNS_7IStreamE(ptr noundef nonnull align 8 dereferenceable(16) %this, ptr noundef nonnull align 8 dereferenceable(40) %is) #4 align 2 personality ptr @__gxx_personality_v0 {
entry:
  %this.addr = alloca ptr, align 8
  %is.addr = alloca ptr, align 8
  %exn.slot = alloca ptr, align 8
  %ehselector.slot = alloca i32, align 4
  %part = alloca ptr, align 8
  store ptr %this, ptr %this.addr, align 8
  store ptr %is, ptr %is.addr, align 8
  %this1 = load ptr, ptr %this.addr, align 8
  %0 = load ptr, ptr %is.addr, align 8
  %vtable = load ptr, ptr %0, align 8
  %vfn = getelementptr inbounds ptr, ptr %vtable, i64 6
  %1 = load ptr, ptr %vfn, align 8
  call void %1(ptr noundef nonnull align 8 dereferenceable(40) %0, i64 noundef 0)
  %_data = getelementptr inbounds %"class.Imf_3_2::DeepScanLineInputFile", ptr %this1, i32 0, i32 1
  %2 = load ptr, ptr %_data, align 8
  %multiPartBackwardSupport = getelementptr inbounds %"struct.Imf_3_2::DeepScanLineInputFile::Data", ptr %2, i32 0, i32 22
  store i8 1, ptr %multiPartBackwardSupport, align 4
  %call = call noalias noundef nonnull ptr @_Znwm(i64 noundef 16) #19
  %3 = load ptr, ptr %is.addr, align 8
  %_data2 = getelementptr inbounds %"class.Imf_3_2::DeepScanLineInputFile", ptr %this1, i32 0, i32 1
  %4 = load ptr, ptr %_data2, align 8
  %numThreads = getelementptr inbounds %"struct.Imf_3_2::DeepScanLineInputFile::Data", ptr %4, i32 0, i32 21
  %5 = load i32, ptr %numThreads, align 8
  invoke void @_ZN7Imf_3_218MultiPartInputFileC1ERNS_7IStreamEib(ptr noundef nonnull align 8 dereferenceable(16) %call, ptr noundef nonnull align 8 dereferenceable(40) %3, i32 noundef %5, i1 noundef zeroext true)
          to label %invoke.cont unwind label %lpad

invoke.cont:                                      ; preds = %entry
  %_data3 = getelementptr inbounds %"class.Imf_3_2::DeepScanLineInputFile", ptr %this1, i32 0, i32 1
  %6 = load ptr, ptr %_data3, align 8
  %multiPartFile = getelementptr inbounds %"struct.Imf_3_2::DeepScanLineInputFile::Data", ptr %6, i32 0, i32 24
  store ptr %call, ptr %multiPartFile, align 8
  %_data4 = getelementptr inbounds %"class.Imf_3_2::DeepScanLineInputFile", ptr %this1, i32 0, i32 1
  %7 = load ptr, ptr %_data4, align 8
  %multiPartFile5 = getelementptr inbounds %"struct.Imf_3_2::DeepScanLineInputFile::Data", ptr %7, i32 0, i32 24
  %8 = load ptr, ptr %multiPartFile5, align 8
  %call6 = call noundef ptr @_ZN7Imf_3_218MultiPartInputFile7getPartEi(ptr noundef nonnull align 8 dereferenceable(16) %8, i32 noundef 0)
  store ptr %call6, ptr %part, align 8
  %9 = load ptr, ptr %part, align 8
  call void @_ZN7Imf_3_221DeepScanLineInputFile19multiPartInitializeEPNS_13InputPartDataE(ptr noundef nonnull align 8 dereferenceable(16) %this1, ptr noundef %9)
  ret void

lpad:                                             ; preds = %entry
  %10 = landingpad { ptr, i32 }
          cleanup
  %11 = extractvalue { ptr, i32 } %10, 0
  store ptr %11, ptr %exn.slot, align 8
  %12 = extractvalue { ptr, i32 } %10, 1
  store i32 %12, ptr %ehselector.slot, align 4
  call void @_ZdlPv(ptr noundef %call) #17
  br label %eh.resume

eh.resume:                                        ; preds = %lpad
  %exn = load ptr, ptr %exn.slot, align 8
  %sel = load i32, ptr %ehselector.slot, align 4
  %lpad.val = insertvalue { ptr, i32 } poison, ptr %exn, 0
  %lpad.val7 = insertvalue { ptr, i32 } %lpad.val, i32 %sel, 1
  resume { ptr, i32 } %lpad.val7
}