; Function Attrs: mustprogress uwtable
define void @_ZN7Imf_3_221DeepScanLineInputFile23compatibilityInitializeERNS_7IStreamE(ptr nocapture noundef nonnull readonly align 8 dereferenceable(16) %this, ptr noundef nonnull align 8 dereferenceable(40) %is) local_unnamed_addr #3 align 2 personality ptr @__gxx_personality_v0 {
entry:
  %vtable = load ptr, ptr %is, align 8
  %vfn = getelementptr inbounds i8, ptr %vtable, i64 48
  %0 = load ptr, ptr %vfn, align 8
  tail call void %0(ptr noundef nonnull align 8 dereferenceable(40) %is, i64 noundef 0)
  %_data = getelementptr inbounds i8, ptr %this, i64 8
  %1 = load ptr, ptr %_data, align 8
  %multiPartBackwardSupport = getelementptr inbounds i8, ptr %1, i64 372
  store i8 1, ptr %multiPartBackwardSupport, align 4
  %call = tail call noalias noundef nonnull dereferenceable(16) ptr @_Znwm(i64 noundef 16) #22
  %2 = load ptr, ptr %_data, align 8
  %numThreads = getelementptr inbounds i8, ptr %2, i64 368
  %3 = load i32, ptr %numThreads, align 8
  invoke void @_ZN7Imf_3_218MultiPartInputFileC1ERNS_7IStreamEib(ptr noundef nonnull align 8 dereferenceable(16) %call, ptr noundef nonnull align 8 dereferenceable(40) %is, i32 noundef %3, i1 noundef zeroext true)
          to label %invoke.cont unwind label %lpad

invoke.cont:                                      ; preds = %entry
  %4 = load ptr, ptr %_data, align 8
  %multiPartFile = getelementptr inbounds i8, ptr %4, i64 376
  store ptr %call, ptr %multiPartFile, align 8
  %5 = load ptr, ptr %_data, align 8
  %multiPartFile5 = getelementptr inbounds i8, ptr %5, i64 376
  %6 = load ptr, ptr %multiPartFile5, align 8
  %call6 = tail call noundef ptr @_ZN7Imf_3_218MultiPartInputFile7getPartEi(ptr noundef nonnull align 8 dereferenceable(16) %6, i32 noundef 0)
  %mutex.i = getelementptr inbounds i8, ptr %call6, i64 72
  %7 = load ptr, ptr %mutex.i, align 8
  %8 = load ptr, ptr %_data, align 8
  %_streamData.i = getelementptr inbounds i8, ptr %8, i64 504
  store ptr %7, ptr %_streamData.i, align 8
  %9 = load ptr, ptr %_data, align 8
  %_streamData3.i = getelementptr inbounds i8, ptr %9, i64 504
  %10 = load ptr, ptr %_streamData3.i, align 8
  %is.i = getelementptr inbounds i8, ptr %10, i64 40
  %11 = load ptr, ptr %is.i, align 8
  %vtable.i = load ptr, ptr %11, align 8
  %vfn.i = getelementptr inbounds i8, ptr %vtable.i, i64 16
  %12 = load ptr, ptr %vfn.i, align 8
  %call.i = tail call noundef zeroext i1 %12(ptr noundef nonnull align 8 dereferenceable(40) %11)
  %13 = load ptr, ptr %_data, align 8
  %memoryMapped.i = getelementptr inbounds i8, ptr %13, i64 384
  %frombool.i = zext i1 %call.i to i8
  store i8 %frombool.i, ptr %memoryMapped.i, align 8
  %version.i = getelementptr inbounds i8, ptr %call6, i64 64
  %14 = load i32, ptr %version.i, align 8
  %15 = load ptr, ptr %_data, align 8
  %version6.i = getelementptr inbounds i8, ptr %15, i64 96
  store i32 %14, ptr %version6.i, align 8
  tail call void @_ZN7Imf_3_221DeepScanLineInputFile10initializeERKNS_6HeaderE(ptr noundef nonnull align 8 dereferenceable(16) %this, ptr noundef nonnull align 8 dereferenceable(49) %call6)
  %chunkOffsets.i = getelementptr inbounds i8, ptr %call6, i64 80
  %16 = load ptr, ptr %_data, align 8
  %lineOffsets.i = getelementptr inbounds i8, ptr %16, i64 232
  %call8.i = tail call noundef nonnull align 8 dereferenceable(24) ptr @_ZNSt6vectorImSaImEEaSERKS1_(ptr noundef nonnull align 8 dereferenceable(24) %lineOffsets.i, ptr noundef nonnull align 8 dereferenceable(24) %chunkOffsets.i)
  %partNumber.i = getelementptr inbounds i8, ptr %call6, i64 60
  %17 = load i32, ptr %partNumber.i, align 4
  %18 = load ptr, ptr %_data, align 8
  %partNumber10.i = getelementptr inbounds i8, ptr %18, i64 364
  store i32 %17, ptr %partNumber10.i, align 4
  ret void

lpad:                                             ; preds = %entry
  %19 = landingpad { ptr, i32 }
          cleanup
  tail call void @_ZdlPv(ptr noundef nonnull %call) #24
  resume { ptr, i32 } %19
}